target datalayout = "e-m:e-p270:32:32-p271:32:32-p272:64:64-i64:64-i128:128-f80:128-n8:16:32:64-S128"
target triple = "x86_64-pc-linux-gnu"

%"class.std::vector" = type { %"struct.std::_Vector_base" }
%"struct.std::_Vector_base" = type { %"struct.std::_Vector_base<float, std::allocator<float>>::_Vector_impl" }
%"struct.std::_Vector_base<float, std::allocator<float>>::_Vector_impl" = type { %"struct.std::_Vector_base<float, std::allocator<float>>::_Vector_impl_data" }
%"struct.std::_Vector_base<float, std::allocator<float>>::_Vector_impl_data" = type { ptr, ptr, ptr }
%"class.cv::detail::tracking::online_boosting::BaseClassifier" = type <{ ptr, ptr, i8, [3 x i8], i32, i32, i32, %"class.std::vector", %"class.std::vector", i32, [4 x i8] }>
%"class.cv::Mat" = type { i32, i32, i32, i32, ptr, ptr, ptr, ptr, ptr, ptr, %"struct.cv::MatSize", %"struct.cv::MatStep" }
%"struct.cv::MatSize" = type { ptr }
%"struct.cv::MatStep" = type { ptr, [2 x i64] }
%"class.cv::detail::tracking::online_boosting::WeakClassifierHaarFeature" = type { ptr, float, float, ptr }
%"class.cv::detail::tracking::online_boosting::ClassifierThreshold" = type { ptr, ptr, ptr, float, i32 }

; Function Attrs: mustprogress nounwind uwtable
define hidden noundef i32 @_ZN2cv6detail8tracking15online_boosting19ClassifierThreshold4evalEf(ptr noundef nonnull align 8 dereferenceable(32) %0, float noundef %1) #5 align 2 {
  %3 = alloca ptr, align 8
  %4 = alloca float, align 4
  store ptr %0, ptr %3, align 8, !tbaa !168
  store float %1, ptr %4, align 4, !tbaa !38
  %5 = load ptr, ptr %3, align 8
  %6 = getelementptr inbounds nuw %"class.cv::detail::tracking::online_boosting::ClassifierThreshold", ptr %5, i32 0, i32 4
  %7 = load i32, ptr %6, align 4, !tbaa !173
  %8 = sitofp i32 %7 to float
  %9 = load float, ptr %4, align 4, !tbaa !38
  %10 = getelementptr inbounds nuw %"class.cv::detail::tracking::online_boosting::ClassifierThreshold", ptr %5, i32 0, i32 3
  %11 = load float, ptr %10, align 8, !tbaa !172
  %12 = fsub float %9, %11
  %13 = fmul float %8, %12
  %14 = fcmp ogt float %13, 0.000000e+00
  %15 = select i1 %14, i32 1, i32 -1
  ret i32 %15
}

; Function Attrs: inlinehint mustprogress nounwind uwtable
define linkonce_odr hidden noundef zeroext i1 @_ZNK2cv3Mat12isContinuousEv(ptr noundef nonnull align 8 dereferenceable(96) %0) #6 comdat align 2 {
  %2 = alloca ptr, align 8
  store ptr %0, ptr %2, align 8, !tbaa !111
  %3 = load ptr, ptr %2, align 8
  %4 = getelementptr inbounds nuw %"class.cv::Mat", ptr %3, i32 0, i32 0
  %5 = load i32, ptr %4, align 8, !tbaa !178
  %6 = and i32 %5, 16384
  %7 = icmp ne i32 %6, 0
  ret i1 %7
}

; Function Attrs: mustprogress uwtable
define hidden noundef i32 @_ZN2cv6detail8tracking15online_boosting25WeakClassifierHaarFeature4evalEf(ptr noundef nonnull align 8 dereferenceable(24) %0, float noundef %1) #4 align 2 {
  %3 = alloca ptr, align 8
  %4 = alloca float, align 4
  store ptr %0, ptr %3, align 8, !tbaa !120
  store float %1, ptr %4, align 4, !tbaa !38
  %5 = load ptr, ptr %3, align 8
  %6 = getelementptr inbounds nuw %"class.cv::detail::tracking::online_boosting::WeakClassifierHaarFeature", ptr %5, i32 0, i32 3
  %7 = load ptr, ptr %6, align 8, !tbaa !146
  %8 = load float, ptr %4, align 4, !tbaa !38
  %9 = call noundef i32 @_ZN2cv6detail8tracking15online_boosting19ClassifierThreshold4evalEf(ptr noundef nonnull align 8 dereferenceable(32) %7, float noundef %8)
  ret i32 %9
}

; Function Attrs: inlinehint mustprogress uwtable
define linkonce_odr hidden noundef nonnull align 4 dereferenceable(4) ptr @_ZNK2cv3Mat2atIfEERKT_i(ptr noundef nonnull align 8 dereferenceable(96) %0, i32 noundef %1) #12 comdat align 2 {
  %3 = alloca ptr, align 8
  %4 = alloca ptr, align 8
  %5 = alloca i32, align 4
  %6 = alloca i32, align 4
  %7 = alloca i32, align 4
  store ptr %0, ptr %4, align 8, !tbaa !111
  store i32 %1, ptr %5, align 4, !tbaa !8
  %8 = load ptr, ptr %4, align 8
  %9 = call noundef zeroext i1 @_ZNK2cv3Mat12isContinuousEv(ptr noundef nonnull align 8 dereferenceable(96) %8)
  br i1 %9, label %17, label %10

10:                                               ; preds = %2
  %11 = getelementptr inbounds nuw %"class.cv::Mat", ptr %8, i32 0, i32 10
  %12 = getelementptr inbounds nuw %"struct.cv::MatSize", ptr %11, i32 0, i32 0
  %13 = load ptr, ptr %12, align 8, !tbaa !149
  %14 = getelementptr inbounds i32, ptr %13, i64 0
  %15 = load i32, ptr %14, align 4, !tbaa !8
  %16 = icmp eq i32 %15, 1
  br i1 %16, label %17, label %23

17:                                               ; preds = %10, %2
  %18 = getelementptr inbounds nuw %"class.cv::Mat", ptr %8, i32 0, i32 4
  %19 = load ptr, ptr %18, align 8, !tbaa !150
  %20 = load i32, ptr %5, align 4, !tbaa !8
  %21 = sext i32 %20 to i64
  %22 = getelementptr inbounds float, ptr %19, i64 %21
  store ptr %22, ptr %3, align 8
  br label %67

23:                                               ; preds = %10
  %24 = getelementptr inbounds nuw %"class.cv::Mat", ptr %8, i32 0, i32 10
  %25 = getelementptr inbounds nuw %"struct.cv::MatSize", ptr %24, i32 0, i32 0
  %26 = load ptr, ptr %25, align 8, !tbaa !149
  %27 = getelementptr inbounds i32, ptr %26, i64 1
  %28 = load i32, ptr %27, align 4, !tbaa !8
  %29 = icmp eq i32 %28, 1
  br i1 %29, label %30, label %42

30:                                               ; preds = %23
  %31 = getelementptr inbounds nuw %"class.cv::Mat", ptr %8, i32 0, i32 4
  %32 = load ptr, ptr %31, align 8, !tbaa !150
  %33 = getelementptr inbounds nuw %"class.cv::Mat", ptr %8, i32 0, i32 11
  %34 = getelementptr inbounds nuw %"struct.cv::MatStep", ptr %33, i32 0, i32 0
  %35 = load ptr, ptr %34, align 8, !tbaa !151
  %36 = getelementptr inbounds i64, ptr %35, i64 0
  %37 = load i64, ptr %36, align 8, !tbaa !58
  %38 = load i32, ptr %5, align 4, !tbaa !8
  %39 = sext i32 %38 to i64
  %40 = mul i64 %37, %39
  %41 = getelementptr inbounds nuw i8, ptr %32, i64 %40
  store ptr %41, ptr %3, align 8
  br label %67

42:                                               ; preds = %23
  call void @llvm.lifetime.start.p0(i64 4, ptr %6) #3
  %43 = load i32, ptr %5, align 4, !tbaa !8
  %44 = getelementptr inbounds nuw %"class.cv::Mat", ptr %8, i32 0, i32 3
  %45 = load i32, ptr %44, align 4, !tbaa !96
  %46 = sdiv i32 %43, %45
  store i32 %46, ptr %6, align 4, !tbaa !8
  call void @llvm.lifetime.start.p0(i64 4, ptr %7) #3
  %47 = load i32, ptr %5, align 4, !tbaa !8
  %48 = load i32, ptr %6, align 4, !tbaa !8
  %49 = getelementptr inbounds nuw %"class.cv::Mat", ptr %8, i32 0, i32 3
  %50 = load i32, ptr %49, align 4, !tbaa !96
  %51 = mul nsw i32 %48, %50
  %52 = sub nsw i32 %47, %51
  store i32 %52, ptr %7, align 4, !tbaa !8
  %53 = getelementptr inbounds nuw %"class.cv::Mat", ptr %8, i32 0, i32 4
  %54 = load ptr, ptr %53, align 8, !tbaa !150
  %55 = getelementptr inbounds nuw %"class.cv::Mat", ptr %8, i32 0, i32 11
  %56 = getelementptr inbounds nuw %"struct.cv::MatStep", ptr %55, i32 0, i32 0
  %57 = load ptr, ptr %56, align 8, !tbaa !151
  %58 = getelementptr inbounds i64, ptr %57, i64 0
  %59 = load i64, ptr %58, align 8, !tbaa !58
  %60 = load i32, ptr %6, align 4, !tbaa !8
  %61 = sext i32 %60 to i64
  %62 = mul i64 %59, %61
  %63 = getelementptr inbounds nuw i8, ptr %54, i64 %62
  %64 = load i32, ptr %7, align 4, !tbaa !8
  %65 = sext i32 %64 to i64
  %66 = getelementptr inbounds float, ptr %63, i64 %65
  store ptr %66, ptr %3, align 8
  call void @llvm.lifetime.end.p0(i64 4, ptr %7) #3
  call void @llvm.lifetime.end.p0(i64 4, ptr %6) #3
  br label %67

67:                                               ; preds = %42, %30, %17
  %68 = load ptr, ptr %3, align 8
  ret ptr %68
}

; Function Attrs: mustprogress uwtable
define hidden noundef i32 @_ZN2cv6detail8tracking15online_boosting14BaseClassifier4evalERKNS_3MatE(ptr noundef nonnull align 8 dereferenceable(84) %0, ptr noundef nonnull align 8 dereferenceable(96) %1) #4 align 2 {
  %3 = alloca ptr, align 8
  %4 = alloca ptr, align 8
  store ptr %0, ptr %3, align 8, !tbaa !66
  store ptr %1, ptr %4, align 8, !tbaa !111
  %5 = load ptr, ptr %3, align 8
  %6 = getelementptr inbounds nuw %"class.cv::detail::tracking::online_boosting::BaseClassifier", ptr %5, i32 0, i32 1
  %7 = load ptr, ptr %6, align 8, !tbaa !70
  %8 = getelementptr inbounds nuw %"class.cv::detail::tracking::online_boosting::BaseClassifier", ptr %5, i32 0, i32 5
  %9 = load i32, ptr %8, align 8, !tbaa !124
  %10 = sext i32 %9 to i64
  %11 = getelementptr inbounds ptr, ptr %7, i64 %10
  %12 = load ptr, ptr %11, align 8, !tbaa !120
  %13 = load ptr, ptr %4, align 8, !tbaa !111
  %14 = getelementptr inbounds nuw %"class.cv::detail::tracking::online_boosting::BaseClassifier", ptr %5, i32 0, i32 5
  %15 = load i32, ptr %14, align 8, !tbaa !124
  %16 = call noundef nonnull align 4 dereferenceable(4) ptr @_ZNK2cv3Mat2atIfEERKT_i(ptr noundef nonnull align 8 dereferenceable(96) %13, i32 noundef %15)
  %17 = load float, ptr %16, align 4, !tbaa !38
  %18 = call noundef i32 @_ZN2cv6detail8tracking15online_boosting25WeakClassifierHaarFeature4evalEf(ptr noundef nonnull align 8 dereferenceable(24) %12, float noundef %17)
  ret i32 %18
}