; Function Attrs: mustprogress nofree norecurse nosync nounwind willreturn memory(read, inaccessiblemem: none) uwtable
define hidden noundef range(i32 -1, 2) i32 @_ZN2cv6detail8tracking15online_boosting14BaseClassifier4evalERKNS_3MatE(ptr noundef nonnull readonly align 8 captures(none) dereferenceable(84) %0, ptr noundef nonnull readonly align 8 captures(none) dereferenceable(96) %1) local_unnamed_addr #12 align 2 {
  %3 = getelementptr inbounds nuw i8, ptr %0, i64 8
  %4 = load ptr, ptr %3, align 8, !tbaa !67
  %5 = getelementptr inbounds nuw i8, ptr %0, i64 24
  %6 = load i32, ptr %5, align 8, !tbaa !80
  %7 = sext i32 %6 to i64
  %8 = getelementptr inbounds ptr, ptr %4, i64 %7
  %9 = load ptr, ptr %8, align 8, !tbaa !81
  %10 = load i32, ptr %1, align 8, !tbaa !41
  %11 = and i32 %10, 16384
  %.not.i = icmp eq i32 %11, 0
  br i1 %.not.i, label %12, label %17

12:                                               ; preds = %2
  %13 = getelementptr inbounds nuw i8, ptr %1, i64 64
  %14 = load ptr, ptr %13, align 8, !tbaa !143
  %15 = load i32, ptr %14, align 4, !tbaa !40
  %16 = icmp eq i32 %15, 1
  br i1 %16, label %17, label %21

17:                                               ; preds = %12, %2
  %18 = getelementptr inbounds nuw i8, ptr %1, i64 16
  %19 = load ptr, ptr %18, align 8, !tbaa !99
  %20 = getelementptr inbounds float, ptr %19, i64 %7
  br label %_ZNK2cv3Mat2atIfEERKT_i.exit

21:                                               ; preds = %12
  %22 = getelementptr inbounds nuw i8, ptr %14, i64 4
  %23 = load i32, ptr %22, align 4, !tbaa !40
  %24 = icmp eq i32 %23, 1
  br i1 %24, label %25, label %33

25:                                               ; preds = %21
  %26 = getelementptr inbounds nuw i8, ptr %1, i64 16
  %27 = load ptr, ptr %26, align 8, !tbaa !99
  %28 = getelementptr inbounds nuw i8, ptr %1, i64 72
  %29 = load ptr, ptr %28, align 8, !tbaa !100
  %30 = load i64, ptr %29, align 8, !tbaa !78
  %31 = mul i64 %30, %7
  %32 = getelementptr inbounds nuw i8, ptr %27, i64 %31
  br label %_ZNK2cv3Mat2atIfEERKT_i.exit

33:                                               ; preds = %21
  %34 = getelementptr inbounds nuw i8, ptr %1, i64 12
  %35 = load i32, ptr %34, align 4, !tbaa !77
  %36 = sdiv i32 %6, %35
  %37 = mul nsw i32 %36, %35
  %.recomposed = srem i32 %6, %35
  %38 = getelementptr inbounds nuw i8, ptr %1, i64 16
  %39 = load ptr, ptr %38, align 8, !tbaa !99
  %40 = getelementptr inbounds nuw i8, ptr %1, i64 72
  %41 = load ptr, ptr %40, align 8, !tbaa !100
  %42 = load i64, ptr %41, align 8, !tbaa !78
  %43 = sext i32 %36 to i64
  %44 = mul i64 %42, %43
  %45 = getelementptr inbounds nuw i8, ptr %39, i64 %44
  %46 = sext i32 %.recomposed to i64
  %47 = getelementptr inbounds float, ptr %45, i64 %46
  br label %_ZNK2cv3Mat2atIfEERKT_i.exit

_ZNK2cv3Mat2atIfEERKT_i.exit:                     ; preds = %17, %25, %33
  %.0.i = phi ptr [ %20, %17 ], [ %32, %25 ], [ %47, %33 ]
  %48 = load float, ptr %.0.i, align 4, !tbaa !34
  %49 = getelementptr inbounds nuw i8, ptr %9, i64 16
  %50 = load ptr, ptr %49, align 8, !tbaa !83
  %51 = getelementptr inbounds nuw i8, ptr %50, i64 28
  %52 = load i32, ptr %51, align 4, !tbaa !86
  %53 = sitofp i32 %52 to float
  %54 = getelementptr inbounds nuw i8, ptr %50, i64 24
  %55 = load float, ptr %54, align 8, !tbaa !89
  %56 = fsub float %48, %55
  %57 = fmul float %56, %53
  %58 = fcmp ogt float %57, 0.000000e+00
  %59 = select i1 %58, i32 1, i32 -1
  ret i32 %59
}